(lp0
F82.4
aF58.8
aF50.4
aF47.4
aF51.4
aF47.7
aF52.0
aF54.2
aF50.2
aF42.4
aF46.0
aF49.0
aF36.6
aF40.8
aF57.2
aF43.6
aF50.8
aF55.1
aF42.0
aF56.6
aF40.0
aF39.7
aF47.8
aF58.4
aF51.2
aF58.8
aF37.8
aF43.0
aF38.4
aF39.4
aF52.6
aF36.0
aF35.9
aF37.8
aF50.6
aF40.6
aF43.1
aF58.4
aF48.8
aF54.6
aF45.0
aF40.2
a.